; Function Attrs: mustprogress nounwind uwtable
define hidden noundef zeroext i1 @_ZN13MethodHandles36is_signature_polymorphic_public_nameEP5KlassP6Symbol(ptr noundef %0, ptr noundef %1) local_unnamed_addr #0 align 2 {
  %3 = alloca i32, align 4
  %4 = alloca %class.ArgumentCount, align 8
  %5 = tail call noundef i32 @_ZN13MethodHandles29signature_polymorphic_name_idEP5KlassP6Symbol(ptr noundef %0, ptr noundef %1)
  %.not = icmp eq i32 %5, 0
  br i1 %.not, label %.loopexit, label %6

6:                                                ; preds = %2
  %7 = call noundef i32 @_ZNK13InstanceKlass19find_method_by_nameEPK6SymbolPi(ptr noundef nonnull align 8 dereferenceable(464) %0, ptr noundef %1, ptr noundef nonnull %3) #13
  %8 = load i32, ptr %3, align 4
  %9 = icmp slt i32 %7, %8
  br i1 %9, label %.lr.ph, label %.loopexit

.lr.ph:                                           ; preds = %6
  %10 = getelementptr inbounds i8, ptr %0, i64 400
  %11 = getelementptr inbounds i8, ptr %4, i64 24
  %12 = sext i32 %7 to i64
  br label %13

13:                                               ; preds = %.lr.ph, %.critedge
  %14 = phi i32 [ %8, %.lr.ph ], [ %35, %.critedge ]
  %indvars.iv = phi i64 [ %12, %.lr.ph ], [ %indvars.iv.next, %.critedge ]
  %15 = load ptr, ptr %10, align 8
  %16 = getelementptr inbounds i8, ptr %15, i64 8
  %17 = getelementptr inbounds ptr, ptr %16, i64 %indvars.iv
  %18 = load ptr, ptr %17, align 8
  %19 = getelementptr inbounds i8, ptr %18, i64 40
  %.sroa.0.0.copyload.i = load i32, ptr %19, align 8
  %20 = and i32 %.sroa.0.0.copyload.i, 385
  %21 = icmp eq i32 %20, 385
  br i1 %21, label %22, label %.critedge

22:                                               ; preds = %13
  %23 = getelementptr inbounds i8, ptr %18, i64 8
  %24 = load ptr, ptr %23, align 8
  %25 = getelementptr inbounds i8, ptr %24, i64 8
  %26 = load ptr, ptr %25, align 8
  %27 = getelementptr inbounds i8, ptr %24, i64 38
  %28 = load i16, ptr %27, align 2
  %29 = getelementptr inbounds i8, ptr %26, i64 72
  %30 = zext i16 %28 to i64
  %31 = getelementptr inbounds i64, ptr %29, i64 %30
  %32 = load ptr, ptr %31, align 8
  call void @_ZN13ArgumentCountC1EP6Symbol(ptr noundef nonnull align 8 dereferenceable(28) %4, ptr noundef %32) #13
  %33 = load i32, ptr %11, align 8
  %34 = icmp eq i32 %33, 1
  br i1 %34, label %.loopexit, label %..critedge_crit_edge

..critedge_crit_edge:                             ; preds = %22
  %.pre = load i32, ptr %3, align 4
  br label %.critedge

.critedge:                                        ; preds = %..critedge_crit_edge, %13
  %35 = phi i32 [ %.pre, %..critedge_crit_edge ], [ %14, %13 ]
  %indvars.iv.next = add nsw i64 %indvars.iv, 1
  %36 = sext i32 %35 to i64
  %37 = icmp slt i64 %indvars.iv.next, %36
  br i1 %37, label %13, label %.loopexit, !llvm.loop !9

.loopexit:                                        ; preds = %22, %.critedge, %6, %2
  %.0 = phi i1 [ false, %2 ], [ false, %6 ], [ true, %22 ], [ false, %.critedge ]
  ret i1 %.0
}